target datalayout = "e-m:e-p270:32:32-p271:32:32-p272:64:64-i64:64-i128:128-f80:128-n8:16:32:64-S128"
target triple = "x86_64-pc-linux-gnu"

%struct.H5FA_dblock_t = type { %struct.H5C_cache_entry_t, ptr, ptr, ptr, ptr, i64, i64, i64, i64, i64, i64, i64 }
%struct.H5C_cache_entry_t = type { ptr, i64, i64, ptr, i8, ptr, i8, i8, i8, i8, i32, i8, i8, i8, i8, i8, i32, ptr, i32, i32, i32, i32, i32, i8, i8, ptr, ptr, ptr, ptr, ptr, ptr, i8, i32, i8, i64, ptr, i64, i64, i32, i8, i32, i32, i8, ptr, ptr, ptr }

@H5_chunk_elmts_blk_free_list = global { i8, [3 x i8], i32, i32, [4 x i8], i64, ptr, ptr } { i8 0, [3 x i8] zeroinitializer, i32 0, i32 0, [4 x i8] zeroinitializer, i64 0, ptr @.str, ptr null }, align 8
@H5_fa_page_init_blk_free_list = global { i8, [3 x i8], i32, i32, [4 x i8], i64, ptr, ptr } { i8 0, [3 x i8] zeroinitializer, i32 0, i32 0, [4 x i8] zeroinitializer, i64 0, ptr @.str.1, ptr null }, align 8
@H5FA_init_g = external global i8, align 1
@H5_libterm_g = external global i8, align 1
@.str.2 = private unnamed_addr constant [104 x i8] c"generated/home/dtcxzyw/WorkSpace/Projects/compilers/llvm-opt-benchmark/bench/hdf5/hdf5/src/H5FAdblock.c\00", align 1
@H5E_FARRAY_g = external global i64, align 8
@__func__.H5FA__dblock_dest = private unnamed_addr constant [18 x i8] c"H5FA__dblock_dest\00", align 1
@H5E_CANTDEC_g = external global i64, align 8
@.str.17 = private unnamed_addr constant [55 x i8] c"can't decrement reference count on shared array header\00", align 1
@H5_H5FA_dblock_t_reg_free_list = internal global { i8, [3 x i8], i32, i32, [4 x i8], ptr, i64, ptr } { i8 0, [3 x i8] zeroinitializer, i32 0, i32 0, [4 x i8] zeroinitializer, ptr @.str.18, i64 336, ptr null }, align 8

; Function Attrs: nounwind uwtable
define i32 @H5FA__dblock_dest(ptr noundef %0) #0 {
  %2 = alloca ptr, align 8
  %3 = alloca i32, align 4
  %4 = alloca i8, align 1
  store ptr %0, ptr %2, align 8, !tbaa !8
  call void @llvm.lifetime.start.p0(i64 4, ptr %3) #4
  store i32 0, ptr %3, align 4, !tbaa !46
  call void @llvm.lifetime.start.p0(i64 1, ptr %4) #4
  store i8 0, ptr %4, align 1, !tbaa !10
  %5 = load i8, ptr @H5FA_init_g, align 1, !tbaa !10, !range !12, !noundef !13
  %6 = trunc i8 %5 to i1
  br i1 %6, label %11, label %7

7:                                                ; preds = %1
  %8 = load i8, ptr @H5_libterm_g, align 1, !tbaa !10, !range !12, !noundef !13
  %9 = trunc i8 %8 to i1
  %10 = xor i1 %9, true
  br label %11

11:                                               ; preds = %7, %1
  %12 = phi i1 [ true, %1 ], [ %10, %7 ]
  %13 = xor i1 %12, true
  %14 = xor i1 %13, true
  %15 = zext i1 %14 to i32
  %16 = sext i32 %15 to i64
  %17 = call i64 @llvm.expect.i64(i64 %16, i64 1)
  %18 = icmp ne i64 %17, 0
  br i1 %18, label %19, label %91

19:                                               ; preds = %11
  %20 = load ptr, ptr %2, align 8, !tbaa !8
  %21 = getelementptr inbounds nuw %struct.H5FA_dblock_t, ptr %20, i32 0, i32 3
  %22 = load ptr, ptr %21, align 8, !tbaa !16
  %23 = icmp ne ptr %22, null
  br i1 %23, label %24, label %87

24:                                               ; preds = %19
  %25 = load ptr, ptr %2, align 8, !tbaa !8
  %26 = getelementptr inbounds nuw %struct.H5FA_dblock_t, ptr %25, i32 0, i32 2
  %27 = load ptr, ptr %26, align 8, !tbaa !45
  %28 = icmp ne ptr %27, null
  br i1 %28, label %29, label %41

29:                                               ; preds = %24
  %30 = load ptr, ptr %2, align 8, !tbaa !8
  %31 = getelementptr inbounds nuw %struct.H5FA_dblock_t, ptr %30, i32 0, i32 7
  %32 = load i64, ptr %31, align 8, !tbaa !36
  %33 = icmp ne i64 %32, 0
  br i1 %33, label %41, label %34

34:                                               ; preds = %29
  %35 = load ptr, ptr %2, align 8, !tbaa !8
  %36 = getelementptr inbounds nuw %struct.H5FA_dblock_t, ptr %35, i32 0, i32 2
  %37 = load ptr, ptr %36, align 8, !tbaa !45
  %38 = call ptr @H5FL_blk_free(ptr noundef @H5_chunk_elmts_blk_free_list, ptr noundef %37)
  %39 = load ptr, ptr %2, align 8, !tbaa !8
  %40 = getelementptr inbounds nuw %struct.H5FA_dblock_t, ptr %39, i32 0, i32 2
  store ptr %38, ptr %40, align 8, !tbaa !45
  br label %41

41:                                               ; preds = %34, %29, %24
  %42 = load ptr, ptr %2, align 8, !tbaa !8
  %43 = getelementptr inbounds nuw %struct.H5FA_dblock_t, ptr %42, i32 0, i32 7
  %44 = load i64, ptr %43, align 8, !tbaa !36
  %45 = icmp ne i64 %44, 0
  br i1 %45, label %46, label %59

46:                                               ; preds = %41
  %47 = load ptr, ptr %2, align 8, !tbaa !8
  %48 = getelementptr inbounds nuw %struct.H5FA_dblock_t, ptr %47, i32 0, i32 1
  %49 = load ptr, ptr %48, align 8, !tbaa !38
  %50 = icmp ne ptr %49, null
  br i1 %50, label %51, label %58

51:                                               ; preds = %46
  %52 = load ptr, ptr %2, align 8, !tbaa !8
  %53 = getelementptr inbounds nuw %struct.H5FA_dblock_t, ptr %52, i32 0, i32 1
  %54 = load ptr, ptr %53, align 8, !tbaa !38
  %55 = call ptr @H5FL_blk_free(ptr noundef @H5_fa_page_init_blk_free_list, ptr noundef %54)
  %56 = load ptr, ptr %2, align 8, !tbaa !8
  %57 = getelementptr inbounds nuw %struct.H5FA_dblock_t, ptr %56, i32 0, i32 1
  store ptr %55, ptr %57, align 8, !tbaa !38
  br label %58

58:                                               ; preds = %51, %46
  br label %59

59:                                               ; preds = %58, %41
  %60 = load ptr, ptr %2, align 8, !tbaa !8
  %61 = getelementptr inbounds nuw %struct.H5FA_dblock_t, ptr %60, i32 0, i32 3
  %62 = load ptr, ptr %61, align 8, !tbaa !16
  %63 = call i32 @H5FA__hdr_decr(ptr noundef %62)
  %64 = icmp slt i32 %63, 0
  br i1 %64, label %65, label %84

65:                                               ; preds = %59
  br label %66

66:                                               ; preds = %65
  br label %67

67:                                               ; preds = %66
  br label %68

68:                                               ; preds = %67
  %69 = load i64, ptr @H5E_FARRAY_g, align 8, !tbaa !14
  %70 = load i64, ptr @H5E_CANTDEC_g, align 8, !tbaa !14
  %71 = call i32 (ptr, ptr, i32, i64, i64, ptr, ...) @H5E_printf_stack(ptr noundef @.str.2, ptr noundef @__func__.H5FA__dblock_dest, i32 noundef 434, i64 noundef %69, i64 noundef %70, ptr noundef @.str.17)
  br label %72

72:                                               ; preds = %68
  br label %73

73:                                               ; preds = %72
  store i8 1, ptr %4, align 1, !tbaa !10
  %74 = load i8, ptr %4, align 1, !tbaa !10, !range !12, !noundef !13
  %75 = trunc i8 %74 to i1
  %76 = zext i1 %75 to i8
  store i8 %76, ptr %4, align 1, !tbaa !10
  br label %77

77:                                               ; preds = %73
  br label %78

78:                                               ; preds = %77
  br label %79

79:                                               ; preds = %78
  store i32 -1, ptr %3, align 4, !tbaa !46
  br label %90

80:                                               ; No predecessors!
  br label %81

81:                                               ; preds = %80
  br label %82

82:                                               ; preds = %81
  br label %83

83:                                               ; preds = %82
  br label %84

84:                                               ; preds = %83, %59
  %85 = load ptr, ptr %2, align 8, !tbaa !8
  %86 = getelementptr inbounds nuw %struct.H5FA_dblock_t, ptr %85, i32 0, i32 3
  store ptr null, ptr %86, align 8, !tbaa !16
  br label %87

87:                                               ; preds = %84, %19
  %88 = load ptr, ptr %2, align 8, !tbaa !8
  %89 = call ptr @H5FL_reg_free(ptr noundef @H5_H5FA_dblock_t_reg_free_list, ptr noundef %88)
  store ptr %89, ptr %2, align 8, !tbaa !8
  br label %90

90:                                               ; preds = %87, %79
  br label %91

91:                                               ; preds = %90, %11
  %92 = load i32, ptr %3, align 4, !tbaa !46
  call void @llvm.lifetime.end.p0(i64 1, ptr %4) #4
  call void @llvm.lifetime.end.p0(i64 4, ptr %3) #4
  ret i32 %92
}