; Function Attrs: nounwind uwtable
define range(i32 -1, 1) i32 @H5FA__dblock_dest(ptr noundef %0) local_unnamed_addr #0 {
  %2 = load i8, ptr @H5FA_init_g, align 1, !tbaa !3, !range !7, !noundef !8
  %3 = trunc nuw i8 %2 to i1
  %4 = load i8, ptr @H5_libterm_g, align 1, !range !7
  %5 = trunc nuw i8 %4 to i1
  %6 = xor i1 %5, true
  %7 = select i1 %3, i1 true, i1 %6
  br i1 %7, label %8, label %38, !prof !9

8:                                                ; preds = %1
  %9 = getelementptr inbounds nuw i8, ptr %0, i64 264
  %10 = load ptr, ptr %9, align 8, !tbaa !12
  %.not = icmp eq ptr %10, null
  br i1 %.not, label %36, label %11

11:                                               ; preds = %8
  %12 = getelementptr inbounds nuw i8, ptr %0, i64 256
  %13 = load ptr, ptr %12, align 8, !tbaa !43
  %.not15 = icmp eq ptr %13, null
  br i1 %.not15, label %19, label %14

14:                                               ; preds = %11
  %15 = getelementptr inbounds nuw i8, ptr %0, i64 296
  %16 = load i64, ptr %15, align 8, !tbaa !34
  %.not16 = icmp eq i64 %16, 0
  br i1 %.not16, label %17, label %19

17:                                               ; preds = %14
  %18 = tail call ptr @H5FL_blk_free(ptr noundef nonnull @H5_chunk_elmts_blk_free_list, ptr noundef nonnull %13) #3
  store ptr %18, ptr %12, align 8, !tbaa !43
  br label %19

19:                                               ; preds = %17, %14, %11
  %20 = getelementptr inbounds nuw i8, ptr %0, i64 296
  %21 = load i64, ptr %20, align 8, !tbaa !34
  %.not17 = icmp eq i64 %21, 0
  br i1 %.not17, label %27, label %22

22:                                               ; preds = %19
  %23 = getelementptr inbounds nuw i8, ptr %0, i64 248
  %24 = load ptr, ptr %23, align 8, !tbaa !36
  %.not18 = icmp eq ptr %24, null
  br i1 %.not18, label %27, label %25

25:                                               ; preds = %22
  %26 = tail call ptr @H5FL_blk_free(ptr noundef nonnull @H5_fa_page_init_blk_free_list, ptr noundef nonnull %24) #3
  store ptr %26, ptr %23, align 8, !tbaa !36
  br label %27

27:                                               ; preds = %22, %25, %19
  %28 = load ptr, ptr %9, align 8, !tbaa !12
  %29 = tail call i32 @H5FA__hdr_decr(ptr noundef %28) #3
  %30 = icmp slt i32 %29, 0
  br i1 %30, label %31, label %35

31:                                               ; preds = %27
  %32 = load i64, ptr @H5E_FARRAY_g, align 8, !tbaa !10
  %33 = load i64, ptr @H5E_CANTDEC_g, align 8, !tbaa !10
  %34 = tail call i32 (ptr, ptr, i32, i64, i64, ptr, ...) @H5E_printf_stack(ptr noundef nonnull @.str.2, ptr noundef nonnull @__func__.H5FA__dblock_dest, i32 noundef 434, i64 noundef %32, i64 noundef %33, ptr noundef nonnull @.str.17) #3
  br label %38

35:                                               ; preds = %27
  store ptr null, ptr %9, align 8, !tbaa !12
  br label %36

36:                                               ; preds = %35, %8
  %37 = tail call ptr @H5FL_reg_free(ptr noundef nonnull @H5_H5FA_dblock_t_reg_free_list, ptr noundef nonnull %0) #3
  br label %38

38:                                               ; preds = %31, %36, %1
  %.0 = phi i32 [ -1, %31 ], [ 0, %36 ], [ 0, %1 ]
  ret i32 %.0
}